target datalayout = "e-m:e-p270:32:32-p271:32:32-p272:64:64-i64:64-i128:128-f80:128-n8:16:32:64-S128"
target triple = "x86_64-pc-linux-gnu"

%struct.ImVec2 = type { float, float }

; Function Attrs: mustprogress nounwind uwtable
define linkonce_odr dso_local void @_ZN6ImVec2C2Eff(ptr noundef nonnull align 4 dereferenceable(8) %0, float noundef %1, float noundef %2) unnamed_addr #3 comdat align 2 {
  %4 = alloca ptr, align 8
  %5 = alloca float, align 4
  %6 = alloca float, align 4
  store ptr %0, ptr %4, align 8, !tbaa !33
  store float %1, ptr %5, align 4, !tbaa !12
  store float %2, ptr %6, align 4, !tbaa !12
  %7 = load ptr, ptr %4, align 8
  %8 = getelementptr inbounds nuw %struct.ImVec2, ptr %7, i32 0, i32 0
  %9 = load float, ptr %5, align 4, !tbaa !12
  store float %9, ptr %8, align 4, !tbaa !34
  %10 = getelementptr inbounds nuw %struct.ImVec2, ptr %7, i32 0, i32 1
  %11 = load float, ptr %6, align 4, !tbaa !12
  store float %11, ptr %10, align 4, !tbaa !35
  ret void
}

; Function Attrs: mustprogress uwtable
define dso_local <2 x float> @_Z21ImBezierQuadraticCalcRK6ImVec2S1_S1_f(ptr noundef nonnull align 4 dereferenceable(8) %0, ptr noundef nonnull align 4 dereferenceable(8) %1, ptr noundef nonnull align 4 dereferenceable(8) %2, float noundef %3) #0 {
  %5 = alloca %struct.ImVec2, align 4
  %6 = alloca ptr, align 8
  %7 = alloca ptr, align 8
  %8 = alloca ptr, align 8
  %9 = alloca float, align 4
  %10 = alloca float, align 4
  %11 = alloca float, align 4
  %12 = alloca float, align 4
  %13 = alloca float, align 4
  store ptr %0, ptr %6, align 8, !tbaa !33
  store ptr %1, ptr %7, align 8, !tbaa !33
  store ptr %2, ptr %8, align 8, !tbaa !33
  store float %3, ptr %9, align 4, !tbaa !12
  call void @llvm.lifetime.start.p0(i64 4, ptr %10) #17
  %14 = load float, ptr %9, align 4, !tbaa !12
  %15 = fsub float 1.000000e+00, %14
  store float %15, ptr %10, align 4, !tbaa !12
  call void @llvm.lifetime.start.p0(i64 4, ptr %11) #17
  %16 = load float, ptr %10, align 4, !tbaa !12
  %17 = load float, ptr %10, align 4, !tbaa !12
  %18 = fmul float %16, %17
  store float %18, ptr %11, align 4, !tbaa !12
  call void @llvm.lifetime.start.p0(i64 4, ptr %12) #17
  %19 = load float, ptr %10, align 4, !tbaa !12
  %20 = fmul float 2.000000e+00, %19
  %21 = load float, ptr %9, align 4, !tbaa !12
  %22 = fmul float %20, %21
  store float %22, ptr %12, align 4, !tbaa !12
  call void @llvm.lifetime.start.p0(i64 4, ptr %13) #17
  %23 = load float, ptr %9, align 4, !tbaa !12
  %24 = load float, ptr %9, align 4, !tbaa !12
  %25 = fmul float %23, %24
  store float %25, ptr %13, align 4, !tbaa !12
  %26 = load float, ptr %11, align 4, !tbaa !12
  %27 = load ptr, ptr %6, align 8, !tbaa !33
  %28 = getelementptr inbounds nuw %struct.ImVec2, ptr %27, i32 0, i32 0
  %29 = load float, ptr %28, align 4, !tbaa !34
  %30 = fmul float %26, %29
  %31 = load float, ptr %12, align 4, !tbaa !12
  %32 = load ptr, ptr %7, align 8, !tbaa !33
  %33 = getelementptr inbounds nuw %struct.ImVec2, ptr %32, i32 0, i32 0
  %34 = load float, ptr %33, align 4, !tbaa !34
  %35 = fmul float %31, %34
  %36 = fadd float %30, %35
  %37 = load float, ptr %13, align 4, !tbaa !12
  %38 = load ptr, ptr %8, align 8, !tbaa !33
  %39 = getelementptr inbounds nuw %struct.ImVec2, ptr %38, i32 0, i32 0
  %40 = load float, ptr %39, align 4, !tbaa !34
  %41 = fmul float %37, %40
  %42 = fadd float %36, %41
  %43 = load float, ptr %11, align 4, !tbaa !12
  %44 = load ptr, ptr %6, align 8, !tbaa !33
  %45 = getelementptr inbounds nuw %struct.ImVec2, ptr %44, i32 0, i32 1
  %46 = load float, ptr %45, align 4, !tbaa !35
  %47 = fmul float %43, %46
  %48 = load float, ptr %12, align 4, !tbaa !12
  %49 = load ptr, ptr %7, align 8, !tbaa !33
  %50 = getelementptr inbounds nuw %struct.ImVec2, ptr %49, i32 0, i32 1
  %51 = load float, ptr %50, align 4, !tbaa !35
  %52 = fmul float %48, %51
  %53 = fadd float %47, %52
  %54 = load float, ptr %13, align 4, !tbaa !12
  %55 = load ptr, ptr %8, align 8, !tbaa !33
  %56 = getelementptr inbounds nuw %struct.ImVec2, ptr %55, i32 0, i32 1
  %57 = load float, ptr %56, align 4, !tbaa !35
  %58 = fmul float %54, %57
  %59 = fadd float %53, %58
  call void @_ZN6ImVec2C2Eff(ptr noundef nonnull align 4 dereferenceable(8) %5, float noundef %42, float noundef %59)
  call void @llvm.lifetime.end.p0(i64 4, ptr %13) #17
  call void @llvm.lifetime.end.p0(i64 4, ptr %12) #17
  call void @llvm.lifetime.end.p0(i64 4, ptr %11) #17
  call void @llvm.lifetime.end.p0(i64 4, ptr %10) #17
  %60 = load <2 x float>, ptr %5, align 4
  ret <2 x float> %60
}