; Function Attrs: mustprogress nofree norecurse nosync nounwind willreturn memory(argmem: read) uwtable
define dso_local <2 x float> @_Z21ImBezierQuadraticCalcRK6ImVec2S1_S1_f(ptr noundef nonnull readonly align 4 captures(none) dereferenceable(8) %0, ptr noundef nonnull readonly align 4 captures(none) dereferenceable(8) %1, ptr noundef nonnull readonly align 4 captures(none) dereferenceable(8) %2, float noundef %3) local_unnamed_addr #16 {
  %5 = fsub float 1.000000e+00, %3
  %6 = fmul float %5, %5
  %7 = fmul float %5, 2.000000e+00
  %8 = fmul float %3, %7
  %9 = fmul float %3, %3
  %10 = load float, ptr %0, align 4, !tbaa !93
  %11 = fmul float %6, %10
  %12 = load float, ptr %1, align 4, !tbaa !93
  %13 = fmul float %8, %12
  %14 = fadd float %11, %13
  %15 = load float, ptr %2, align 4, !tbaa !93
  %16 = fmul float %9, %15
  %17 = fadd float %14, %16
  %18 = getelementptr inbounds nuw i8, ptr %0, i64 4
  %19 = load float, ptr %18, align 4, !tbaa !94
  %20 = fmul float %6, %19
  %21 = getelementptr inbounds nuw i8, ptr %1, i64 4
  %22 = load float, ptr %21, align 4, !tbaa !94
  %23 = fmul float %8, %22
  %24 = fadd float %20, %23
  %25 = getelementptr inbounds nuw i8, ptr %2, i64 4
  %26 = load float, ptr %25, align 4, !tbaa !94
  %27 = fmul float %9, %26
  %28 = fadd float %24, %27
  %.sroa.0.0.vec.insert = insertelement <2 x float> poison, float %17, i64 0
  %.sroa.0.4.vec.insert = insertelement <2 x float> %.sroa.0.0.vec.insert, float %28, i64 1
  ret <2 x float> %.sroa.0.4.vec.insert
}